target datalayout = "e-m:e-p270:32:32-p271:32:32-p272:64:64-i64:64-i128:128-f80:128-n8:16:32:64-S128"
target triple = "x86_64-pc-linux-gnu"

%"class.smt::qi_queue" = type { ptr, ptr, ptr, ptr, %"struct.smt::qi_queue_stats", %"class.smt::checker", %class.obj_ref, %class.obj_ref, %class.cost_parser, %class.cost_evaluator, %class.cached_var_subst, %class.svector.37, double, %class.svector.39, %class.svector.39, %class.ref_vector, %class.svector.29, %class.svector.41 }
%"struct.smt::qi_queue_stats" = type { i32, i32 }
%"class.smt::checker" = type { ptr, ptr, [2 x %class.obj_map], %class.obj_map.0, i32, ptr }
%class.obj_map = type { %class.core_hashtable }
%class.core_hashtable = type <{ ptr, i32, i32, i32, [4 x i8] }>
%class.obj_map.0 = type { %class.core_hashtable.1 }
%class.core_hashtable.1 = type <{ ptr, i32, i32, i32, [4 x i8] }>
%class.obj_ref = type { ptr, ptr }
%class.cost_parser = type { %class.simple_parser, %class.arith_util, %class.ref_vector.11 }
%class.simple_parser = type { ptr, ptr, %class.map, %class.map.7, %class.ref_vector }
%class.map = type { %class.table2map }
%class.table2map = type { %class.core_hashtable.5 }
%class.core_hashtable.5 = type <{ ptr, i32, i32, i32, [4 x i8] }>
%class.map.7 = type { %class.table2map.8 }
%class.table2map.8 = type { %class.core_hashtable.9 }
%class.core_hashtable.9 = type <{ ptr, i32, i32, i32, [4 x i8] }>
%class.arith_util = type { ptr, ptr }
%class.ref_vector.11 = type { %class.ref_vector_core.12 }
%class.ref_vector_core.12 = type { %class.ref_manager_wrapper.13, %class.ptr_vector.14 }
%class.ref_manager_wrapper.13 = type { ptr }
%class.ptr_vector.14 = type { %class.vector.15 }
%class.vector.15 = type { ptr }
%class.cost_evaluator = type { ptr, %class.arith_util, i32, ptr }
%class.cached_var_subst = type { ptr, %class.var_subst, %class.ref_vector, %class.map.31, %class.region, %class.ptr_vector.35, ptr }
%class.var_subst = type { %class.beta_reducer, i8, [7 x i8] }
%class.beta_reducer = type <{ %class.rewriter_tpl, [8 x i8] }>
%class.rewriter_tpl = type { %class.rewriter_core, ptr, i32, %class.ptr_vector, %class.var_shifter, %class.inv_var_shifter, %class.obj_ref, %class.obj_ref.28, %class.obj_ref.28, %class.svector.29 }
%class.rewriter_core = type { ptr, ptr, i8, i8, %class.ptr_vector.16, ptr, %class.svector, %class.ref_vector, %class.ptr_vector.16, ptr, %class.ref_vector.19, %class.obj_hashtable, ptr, i32, %class.svector.26 }
%class.svector = type { %class.vector.18 }
%class.vector.18 = type { ptr }
%class.ptr_vector.16 = type { %class.vector.17 }
%class.vector.17 = type { ptr }
%class.ref_vector.19 = type { %class.ref_vector_core.20 }
%class.ref_vector_core.20 = type { %class.ref_manager_wrapper.21, %class.ptr_vector.22 }
%class.ref_manager_wrapper.21 = type { ptr }
%class.ptr_vector.22 = type { %class.vector.23 }
%class.vector.23 = type { ptr }
%class.obj_hashtable = type { %class.core_hashtable.base.25, [4 x i8] }
%class.core_hashtable.base.25 = type <{ ptr, i32, i32, i32 }>
%class.svector.26 = type { %class.vector.27 }
%class.vector.27 = type { ptr }
%class.ptr_vector = type { %class.vector }
%class.vector = type { ptr }
%class.var_shifter = type <{ %class.var_shifter_core, i32, i32, i32, [4 x i8] }>
%class.var_shifter_core = type { %class.rewriter_core }
%class.inv_var_shifter = type <{ %class.var_shifter_core, i32, [4 x i8] }>
%class.obj_ref.28 = type { ptr, ptr }
%class.map.31 = type { %class.table2map.32 }
%class.table2map.32 = type { %class.core_hashtable.33 }
%class.core_hashtable.33 = type <{ ptr, i32, i32, i32, [4 x i8] }>
%class.region = type { ptr, ptr, ptr, ptr, ptr }
%class.ptr_vector.35 = type { %class.vector.36 }
%class.vector.36 = type { ptr }
%class.svector.37 = type { %class.vector.38 }
%class.vector.38 = type { ptr }
%class.svector.39 = type { %class.vector.40 }
%class.vector.40 = type { ptr }
%class.ref_vector = type { %class.ref_vector_core }
%class.ref_vector_core = type { %class.ref_manager_wrapper, %class.ptr_vector }
%class.ref_manager_wrapper = type { ptr }
%class.svector.29 = type { %class.vector.30 }
%class.vector.30 = type { ptr }
%class.svector.41 = type { %class.vector.42 }
%class.vector.42 = type { ptr }
%"struct.smt::qi_queue::entry" = type { ptr, float, i32 }

; Function Attrs: inlinehint mustprogress nounwind uwtable
define linkonce_odr noundef nonnull align 4 dereferenceable(4) ptr @_ZSt3maxIfERKT_S2_S2_(ptr noundef nonnull align 4 dereferenceable(4) %0, ptr noundef nonnull align 4 dereferenceable(4) %1) #7 comdat {
  %3 = alloca ptr, align 8
  %4 = alloca ptr, align 8
  %5 = alloca ptr, align 8
  store ptr %0, ptr %4, align 8, !tbaa !595
  store ptr %1, ptr %5, align 8, !tbaa !595
  %6 = load ptr, ptr %4, align 8, !tbaa !595
  %7 = load float, ptr %6, align 4, !tbaa !591
  %8 = load ptr, ptr %5, align 8, !tbaa !595
  %9 = load float, ptr %8, align 4, !tbaa !591
  %10 = fcmp olt float %7, %9
  br i1 %10, label %11, label %13

11:                                               ; preds = %2
  %12 = load ptr, ptr %5, align 8, !tbaa !595
  store ptr %12, ptr %3, align 8
  br label %15

13:                                               ; preds = %2
  %14 = load ptr, ptr %4, align 8, !tbaa !595
  store ptr %14, ptr %3, align 8
  br label %15

15:                                               ; preds = %13, %11
  %16 = load ptr, ptr %3, align 8
  ret ptr %16
}

; Function Attrs: inlinehint mustprogress nounwind uwtable
define linkonce_odr noundef nonnull align 4 dereferenceable(4) ptr @_ZSt3minIfERKT_S2_S2_(ptr noundef nonnull align 4 dereferenceable(4) %0, ptr noundef nonnull align 4 dereferenceable(4) %1) #7 comdat {
  %3 = alloca ptr, align 8
  %4 = alloca ptr, align 8
  %5 = alloca ptr, align 8
  store ptr %0, ptr %4, align 8, !tbaa !595
  store ptr %1, ptr %5, align 8, !tbaa !595
  %6 = load ptr, ptr %5, align 8, !tbaa !595
  %7 = load float, ptr %6, align 4, !tbaa !591
  %8 = load ptr, ptr %4, align 8, !tbaa !595
  %9 = load float, ptr %8, align 4, !tbaa !591
  %10 = fcmp olt float %7, %9
  br i1 %10, label %11, label %13

11:                                               ; preds = %2
  %12 = load ptr, ptr %5, align 8, !tbaa !595
  store ptr %12, ptr %3, align 8
  br label %15

13:                                               ; preds = %2
  %14 = load ptr, ptr %4, align 8, !tbaa !595
  store ptr %14, ptr %3, align 8
  br label %15

15:                                               ; preds = %13, %11
  %16 = load ptr, ptr %3, align 8
  ret ptr %16
}

; Function Attrs: mustprogress nounwind uwtable
define linkonce_odr hidden noundef nonnull align 8 dereferenceable(16) ptr @_ZNK6vectorIN3smt8qi_queue5entryELb0EjEixEj(ptr noundef nonnull align 8 dereferenceable(8) %0, i32 noundef %1) #4 comdat align 2 {
  %3 = alloca ptr, align 8
  %4 = alloca i32, align 4
  store ptr %0, ptr %3, align 8, !tbaa !603
  store i32 %1, ptr %4, align 4, !tbaa !8
  %5 = load ptr, ptr %3, align 8
  %6 = getelementptr inbounds nuw %class.vector.40, ptr %5, i32 0, i32 0
  %7 = load ptr, ptr %6, align 8, !tbaa !651
  %8 = load i32, ptr %4, align 4, !tbaa !8
  %9 = zext i32 %8 to i64
  %10 = getelementptr inbounds nuw %"struct.smt::qi_queue::entry", ptr %7, i64 %9
  ret ptr %10
}

; Function Attrs: mustprogress nounwind uwtable
define linkonce_odr hidden noundef i32 @_ZNK6vectorIN3smt8qi_queue5entryELb0EjE4sizeEv(ptr noundef nonnull align 8 dereferenceable(8) %0) #4 comdat align 2 {
  %2 = alloca i32, align 4
  %3 = alloca ptr, align 8
  store ptr %0, ptr %3, align 8, !tbaa !603
  %4 = load ptr, ptr %3, align 8
  %5 = getelementptr inbounds nuw %class.vector.40, ptr %4, i32 0, i32 0
  %6 = load ptr, ptr %5, align 8, !tbaa !651
  %7 = icmp eq ptr %6, null
  br i1 %7, label %8, label %9

8:                                                ; preds = %1
  store i32 0, ptr %2, align 4
  br label %14

9:                                                ; preds = %1
  %10 = getelementptr inbounds nuw %class.vector.40, ptr %4, i32 0, i32 0
  %11 = load ptr, ptr %10, align 8, !tbaa !651
  %12 = getelementptr inbounds i32, ptr %11, i64 -1
  %13 = load i32, ptr %12, align 4, !tbaa !8
  store i32 %13, ptr %2, align 4
  br label %14

14:                                               ; preds = %9, %8
  %15 = load i32, ptr %2, align 4
  ret i32 %15
}

; Function Attrs: mustprogress uwtable
define hidden void @_ZNK3smt8qi_queue17get_min_max_costsERfS1_(ptr noundef nonnull align 8 dereferenceable(1048) %0, ptr noundef nonnull align 4 dereferenceable(4) %1, ptr noundef nonnull align 4 dereferenceable(4) %2) #6 align 2 {
  %4 = alloca ptr, align 8
  %5 = alloca ptr, align 8
  %6 = alloca ptr, align 8
  %7 = alloca i8, align 1
  %8 = alloca i32, align 4
  %9 = alloca float, align 4
  store ptr %0, ptr %4, align 8, !tbaa !28
  store ptr %1, ptr %5, align 8, !tbaa !595
  store ptr %2, ptr %6, align 8, !tbaa !595
  %10 = load ptr, ptr %4, align 8
  %11 = load ptr, ptr %5, align 8, !tbaa !595
  store float 0.000000e+00, ptr %11, align 4, !tbaa !591
  %12 = load ptr, ptr %6, align 8, !tbaa !595
  store float 0.000000e+00, ptr %12, align 4, !tbaa !591
  call void @llvm.lifetime.start.p0(i64 1, ptr %7) #3
  store i8 0, ptr %7, align 1, !tbaa !10
  call void @llvm.lifetime.start.p0(i64 4, ptr %8) #3
  store i32 0, ptr %8, align 4, !tbaa !8
  br label %13

13:                                               ; preds = %51, %3
  %14 = load i32, ptr %8, align 4, !tbaa !8
  %15 = getelementptr inbounds nuw %"class.smt::qi_queue", ptr %10, i32 0, i32 14
  %16 = call noundef i32 @_ZNK6vectorIN3smt8qi_queue5entryELb0EjE4sizeEv(ptr noundef nonnull align 8 dereferenceable(8) %15)
  %17 = icmp ult i32 %14, %16
  br i1 %17, label %19, label %18

18:                                               ; preds = %13
  call void @llvm.lifetime.end.p0(i64 4, ptr %8) #3
  br label %54

19:                                               ; preds = %13
  %20 = getelementptr inbounds nuw %"class.smt::qi_queue", ptr %10, i32 0, i32 14
  %21 = load i32, ptr %8, align 4, !tbaa !8
  %22 = call noundef nonnull align 8 dereferenceable(16) ptr @_ZNK6vectorIN3smt8qi_queue5entryELb0EjEixEj(ptr noundef nonnull align 8 dereferenceable(8) %20, i32 noundef %21)
  %23 = getelementptr inbounds nuw %"struct.smt::qi_queue::entry", ptr %22, i32 0, i32 2
  %24 = load i32, ptr %23, align 4
  %25 = lshr i32 %24, 31
  %26 = icmp ne i32 %25, 0
  br i1 %26, label %50, label %27

27:                                               ; preds = %19
  call void @llvm.lifetime.start.p0(i64 4, ptr %9) #3
  %28 = getelementptr inbounds nuw %"class.smt::qi_queue", ptr %10, i32 0, i32 14
  %29 = load i32, ptr %8, align 4, !tbaa !8
  %30 = call noundef nonnull align 8 dereferenceable(16) ptr @_ZNK6vectorIN3smt8qi_queue5entryELb0EjEixEj(ptr noundef nonnull align 8 dereferenceable(8) %28, i32 noundef %29)
  %31 = getelementptr inbounds nuw %"struct.smt::qi_queue::entry", ptr %30, i32 0, i32 1
  %32 = load float, ptr %31, align 8, !tbaa !656
  store float %32, ptr %9, align 4, !tbaa !591
  %33 = load i8, ptr %7, align 1, !tbaa !10, !range !12, !noundef !13
  %34 = trunc i8 %33 to i1
  br i1 %34, label %35, label %44

35:                                               ; preds = %27
  %36 = load ptr, ptr %5, align 8, !tbaa !595
  %37 = call noundef nonnull align 4 dereferenceable(4) ptr @_ZSt3minIfERKT_S2_S2_(ptr noundef nonnull align 4 dereferenceable(4) %36, ptr noundef nonnull align 4 dereferenceable(4) %9)
  %38 = load float, ptr %37, align 4, !tbaa !591
  %39 = load ptr, ptr %5, align 8, !tbaa !595
  store float %38, ptr %39, align 4, !tbaa !591
  %40 = load ptr, ptr %6, align 8, !tbaa !595
  %41 = call noundef nonnull align 4 dereferenceable(4) ptr @_ZSt3maxIfERKT_S2_S2_(ptr noundef nonnull align 4 dereferenceable(4) %40, ptr noundef nonnull align 4 dereferenceable(4) %9)
  %42 = load float, ptr %41, align 4, !tbaa !591
  %43 = load ptr, ptr %6, align 8, !tbaa !595
  store float %42, ptr %43, align 4, !tbaa !591
  br label %49

44:                                               ; preds = %27
  store i8 1, ptr %7, align 1, !tbaa !10
  %45 = load float, ptr %9, align 4, !tbaa !591
  %46 = load ptr, ptr %5, align 8, !tbaa !595
  store float %45, ptr %46, align 4, !tbaa !591
  %47 = load float, ptr %9, align 4, !tbaa !591
  %48 = load ptr, ptr %6, align 8, !tbaa !595
  store float %47, ptr %48, align 4, !tbaa !591
  br label %49

49:                                               ; preds = %44, %35
  call void @llvm.lifetime.end.p0(i64 4, ptr %9) #3
  br label %50

50:                                               ; preds = %49, %19
  br label %51

51:                                               ; preds = %50
  %52 = load i32, ptr %8, align 4, !tbaa !8
  %53 = add i32 %52, 1
  store i32 %53, ptr %8, align 4, !tbaa !8
  br label %13, !llvm.loop !788

54:                                               ; preds = %18
  call void @llvm.lifetime.end.p0(i64 1, ptr %7) #3
  ret void
}