; Function Attrs: mustprogress nofree norecurse nosync nounwind memory(read, argmem: readwrite, inaccessiblemem: none) uwtable
define hidden void @_ZNK3smt8qi_queue17get_min_max_costsERfS1_(ptr noundef nonnull readonly align 8 captures(none) dereferenceable(1048) %0, ptr noundef nonnull align 4 captures(none) dereferenceable(4) initializes((0, 4)) %1, ptr noundef nonnull align 4 captures(none) dereferenceable(4) initializes((0, 4)) %2) local_unnamed_addr #9 align 2 {
  store float 0.000000e+00, ptr %1, align 4, !tbaa !558
  store float 0.000000e+00, ptr %2, align 4, !tbaa !558
  %4 = getelementptr inbounds nuw i8, ptr %0, i64 1008
  %5 = load ptr, ptr %4, align 8, !tbaa !567
  %6 = icmp eq ptr %5, null
  br i1 %6, label %.split18.us, label %.split

.split:                                           ; preds = %3
  %7 = getelementptr inbounds i8, ptr %5, i64 -4
  %8 = load i32, ptr %7, align 4, !tbaa !555
  %.not24 = icmp eq i32 %8, 0
  br i1 %.not24, label %.split18.us, label %.lr.ph.preheader

.lr.ph.preheader:                                 ; preds = %.split
  %wide.trip.count = zext i32 %8 to i64
  br label %.lr.ph

.split18.us:                                      ; preds = %_ZNK6vectorIN3smt8qi_queue5entryELb0EjE4sizeEv.exit, %.split, %3
  ret void

.lr.ph:                                           ; preds = %.lr.ph.preheader, %_ZNK6vectorIN3smt8qi_queue5entryELb0EjE4sizeEv.exit
  %indvars.iv = phi i64 [ 0, %.lr.ph.preheader ], [ %indvars.iv.next, %_ZNK6vectorIN3smt8qi_queue5entryELb0EjE4sizeEv.exit ]
  %.01319 = phi i1 [ false, %.lr.ph.preheader ], [ %.2, %_ZNK6vectorIN3smt8qi_queue5entryELb0EjE4sizeEv.exit ]
  %9 = getelementptr inbounds nuw %"struct.smt::qi_queue::entry", ptr %5, i64 %indvars.iv
  %10 = getelementptr inbounds nuw i8, ptr %9, i64 12
  %11 = load i32, ptr %10, align 4
  %.not = icmp sgt i32 %11, -1
  br i1 %.not, label %12, label %_ZNK6vectorIN3smt8qi_queue5entryELb0EjE4sizeEv.exit

12:                                               ; preds = %.lr.ph
  %13 = getelementptr inbounds nuw i8, ptr %9, i64 8
  %14 = load float, ptr %13, align 8, !tbaa !619
  br i1 %.01319, label %15, label %21

15:                                               ; preds = %12
  %16 = load float, ptr %1, align 4, !tbaa !558
  %17 = fcmp olt float %14, %16
  %18 = select i1 %17, float %14, float %16
  store float %18, ptr %1, align 4, !tbaa !558
  %19 = load float, ptr %2, align 4, !tbaa !558
  %20 = fcmp olt float %19, %14
  %storemerge.pre = select i1 %20, float %14, float %19
  br label %22

21:                                               ; preds = %12
  store float %14, ptr %1, align 4, !tbaa !558
  br label %22

22:                                               ; preds = %21, %15
  %storemerge = phi float [ %14, %21 ], [ %storemerge.pre, %15 ]
  store float %storemerge, ptr %2, align 4, !tbaa !558
  br label %_ZNK6vectorIN3smt8qi_queue5entryELb0EjE4sizeEv.exit

_ZNK6vectorIN3smt8qi_queue5entryELb0EjE4sizeEv.exit: ; preds = %.lr.ph, %22
  %.2 = phi i1 [ %.01319, %.lr.ph ], [ true, %22 ]
  %indvars.iv.next = add nuw nsw i64 %indvars.iv, 1
  %exitcond.not = icmp eq i64 %indvars.iv.next, %wide.trip.count
  br i1 %exitcond.not, label %.split18.us, label %.lr.ph, !llvm.loop !742
}